target datalayout = "e-m:e-p270:32:32-p271:32:32-p272:64:64-i64:64-i128:128-f80:128-n8:16:32:64-S128"
target triple = "x86_64-pc-linux-gnu"

%struct.strbuf = type { i64, i64, ptr }
%struct.__va_list_tag = type { i32, i32, ptr, ptr }

@__const.error_clnt.buf = private unnamed_addr constant %struct.strbuf { i64 0, i64 0, ptr @strbuf_slopbuf }, align 8
@.str.14 = private unnamed_addr constant [29 x i8] c"sent error to the client: %s\00", align 1

; Function Attrs: nounwind uwtable
define internal void @error_clnt(ptr noundef %0, ...) #0 {
  %2 = alloca ptr, align 8
  %3 = alloca %struct.strbuf, align 8
  %4 = alloca [1 x %struct.__va_list_tag], align 16
  store ptr %0, ptr %2, align 8, !tbaa !11
  call void @llvm.lifetime.start.p0(i64 24, ptr %3) #10
  call void @llvm.memcpy.p0.p0.i64(ptr align 8 %3, ptr align 8 @__const.error_clnt.buf, i64 24, i1 false)
  call void @llvm.lifetime.start.p0(i64 24, ptr %4) #10
  %5 = getelementptr inbounds [1 x %struct.__va_list_tag], ptr %4, i64 0, i64 0
  call void @llvm.va_start.p0(ptr %5)
  %6 = load ptr, ptr %2, align 8, !tbaa !11
  %7 = getelementptr inbounds [1 x %struct.__va_list_tag], ptr %4, i64 0, i64 0
  call void @strbuf_vaddf(ptr noundef %3, ptr noundef %6, ptr noundef %7)
  %8 = getelementptr inbounds [1 x %struct.__va_list_tag], ptr %4, i64 0, i64 0
  call void @llvm.va_end.p0(ptr %8)
  %9 = getelementptr inbounds nuw %struct.strbuf, ptr %3, i32 0, i32 2
  %10 = load ptr, ptr %9, align 8, !tbaa !28
  %11 = getelementptr inbounds nuw %struct.strbuf, ptr %3, i32 0, i32 1
  %12 = load i64, ptr %11, align 8, !tbaa !30
  call void @send_sideband(i32 noundef 1, i32 noundef 3, ptr noundef %10, i64 noundef %12, i32 noundef 65520)
  %13 = getelementptr inbounds nuw %struct.strbuf, ptr %3, i32 0, i32 2
  %14 = load ptr, ptr %13, align 8, !tbaa !28
  call void (ptr, ...) @die(ptr noundef @.str.14, ptr noundef %14) #11
  unreachable
}