; Function Attrs: noreturn nounwind uwtable
define internal void @error_clnt(ptr noundef %0, ...) unnamed_addr #7 {
  %2 = alloca %struct.strbuf, align 8
  %3 = alloca [1 x %struct.__va_list_tag], align 16
  call void @llvm.lifetime.start.p0(i64 24, ptr nonnull %2) #10
  call void @llvm.memcpy.p0.p0.i64(ptr noundef nonnull align 8 dereferenceable(24) %2, ptr noundef nonnull align 8 dereferenceable(24) @__const.error_clnt.buf, i64 24, i1 false)
  call void @llvm.lifetime.start.p0(i64 24, ptr nonnull %3) #10
  call void @llvm.va_start.p0(ptr nonnull %3)
  call void @strbuf_vaddf(ptr noundef nonnull %2, ptr noundef %0, ptr noundef nonnull %3) #10
  call void @llvm.va_end.p0(ptr nonnull %3)
  %4 = getelementptr inbounds nuw i8, ptr %2, i64 16
  %5 = load ptr, ptr %4, align 8, !tbaa !26
  %6 = getelementptr inbounds nuw i8, ptr %2, i64 8
  %7 = load i64, ptr %6, align 8, !tbaa !28
  call void @send_sideband(i32 noundef 1, i32 noundef 3, ptr noundef %5, i64 noundef %7, i32 noundef 65520) #10
  %8 = load ptr, ptr %4, align 8, !tbaa !26
  call void (ptr, ...) @die(ptr noundef nonnull @.str.14, ptr noundef %8) #11
  unreachable
}